target datalayout = "e-m:e-p270:32:32-p271:32:32-p272:64:64-i64:64-i128:128-f80:128-n8:16:32:64-S128"
target triple = "x86_64-pc-linux-gnu"

%"class.pbrt::Transform" = type { %"class.pbrt::SquareMatrix.0", %"class.pbrt::SquareMatrix.0" }
%"class.pbrt::SquareMatrix.0" = type { [4 x [4 x float]] }
%"class.pbrt::Vector3" = type { %"class.pbrt::Tuple3" }
%"class.pbrt::Tuple3" = type { float, float, float }
%"class.pbrt::Quaternion" = type { %"class.pbrt::Vector3", float }
%"class.pbrt::SurfaceInteraction" = type { %"class.pbrt::Interaction", %"class.pbrt::Vector3", %"class.pbrt::Vector3", %"class.pbrt::Normal3", %"class.pbrt::Normal3", %struct.anon, i32, %"class.pbrt::Material", %"class.pbrt::Light", %"class.pbrt::Vector3", %"class.pbrt::Vector3", float, float, float, float }
%"class.pbrt::Interaction" = type { %"class.pbrt::Point3fi", float, %"class.pbrt::Vector3", %"class.pbrt::Normal3", %"class.pbrt::Point2", ptr, %"class.pbrt::Medium" }
%"class.pbrt::Point3fi" = type { %"class.pbrt::Point3.3" }
%"class.pbrt::Point3.3" = type { %"class.pbrt::Tuple3.4" }
%"class.pbrt::Tuple3.4" = type { %"class.pbrt::Interval", %"class.pbrt::Interval", %"class.pbrt::Interval" }
%"class.pbrt::Interval" = type { float, float }
%"class.pbrt::Point2" = type { %"class.pbrt::Tuple2" }
%"class.pbrt::Tuple2" = type { float, float }
%"class.pbrt::Medium" = type { %"class.pbrt::TaggedPointer" }
%"class.pbrt::TaggedPointer" = type { i64 }
%"class.pbrt::Normal3" = type { %"class.pbrt::Tuple3.5" }
%"class.pbrt::Tuple3.5" = type { float, float, float }
%struct.anon = type { %"class.pbrt::Normal3", %"class.pbrt::Vector3", %"class.pbrt::Vector3", %"class.pbrt::Normal3", %"class.pbrt::Normal3" }
%"class.pbrt::Material" = type { %"class.pbrt::TaggedPointer.6" }
%"class.pbrt::TaggedPointer.6" = type { i64 }
%"class.pbrt::Light" = type { %"class.pbrt::TaggedPointer.7" }
%"class.pbrt::TaggedPointer.7" = type { i64 }
%"struct.pbrt::AnimatedTransform::DerivativeTerm" = type { float, float, float, float }
%"class.pbrt::AnimatedTransform" = type { %"class.pbrt::Transform", %"class.pbrt::Transform", float, float, i8, [2 x %"class.pbrt::Vector3"], [2 x %"class.pbrt::Quaternion"], [2 x %"class.pbrt::SquareMatrix.0"], i8, [3 x %"struct.pbrt::AnimatedTransform::DerivativeTerm"], [3 x %"struct.pbrt::AnimatedTransform::DerivativeTerm"], [3 x %"struct.pbrt::AnimatedTransform::DerivativeTerm"], [3 x %"struct.pbrt::AnimatedTransform::DerivativeTerm"], [3 x %"struct.pbrt::AnimatedTransform::DerivativeTerm"] }

; Function Attrs: mustprogress uwtable
define dso_local void @_ZNK4pbrt17AnimatedTransformclERKNS_18SurfaceInteractionE(ptr dead_on_unwind noalias writable sret(%"class.pbrt::SurfaceInteraction") align 8 %0, ptr noundef nonnull align 4 dereferenceable(696) %1, ptr noundef nonnull align 8 dereferenceable(248) %2) #1 align 2 {
  %4 = alloca ptr, align 8
  %5 = alloca ptr, align 8
  %6 = alloca ptr, align 8
  %7 = alloca %"class.pbrt::Transform", align 4
  store ptr %0, ptr %4, align 8
  store ptr %1, ptr %5, align 8, !tbaa !118
  store ptr %2, ptr %6, align 8, !tbaa !75
  %8 = load ptr, ptr %5, align 8
  %9 = getelementptr inbounds nuw %"class.pbrt::AnimatedTransform", ptr %8, i32 0, i32 4
  %10 = load i8, ptr %9, align 4, !tbaa !127, !range !128, !noundef !129
  %11 = trunc i8 %10 to i1
  br i1 %11, label %15, label %12

12:                                               ; preds = %3
  %13 = getelementptr inbounds nuw %"class.pbrt::AnimatedTransform", ptr %8, i32 0, i32 0
  %14 = load ptr, ptr %6, align 8, !tbaa !75
  call void @_ZNK4pbrt9TransformclERKNS_18SurfaceInteractionE(ptr dead_on_unwind writable sret(%"class.pbrt::SurfaceInteraction") align 8 %0, ptr noundef nonnull align 4 dereferenceable(128) %13, ptr noundef nonnull align 8 dereferenceable(248) %14)
  br label %20

15:                                               ; preds = %3
  call void @llvm.lifetime.start.p0(i64 128, ptr %7) #20
  %16 = load ptr, ptr %6, align 8, !tbaa !75
  %17 = getelementptr inbounds nuw %"class.pbrt::Interaction", ptr %16, i32 0, i32 1
  %18 = load float, ptr %17, align 8, !tbaa !77
  call void @_ZNK4pbrt17AnimatedTransform11InterpolateEf(ptr dead_on_unwind writable sret(%"class.pbrt::Transform") align 4 %7, ptr noundef nonnull align 4 dereferenceable(696) %8, float noundef %18)
  %19 = load ptr, ptr %6, align 8, !tbaa !75
  call void @_ZNK4pbrt9TransformclERKNS_18SurfaceInteractionE(ptr dead_on_unwind writable sret(%"class.pbrt::SurfaceInteraction") align 8 %0, ptr noundef nonnull align 4 dereferenceable(128) %7, ptr noundef nonnull align 8 dereferenceable(248) %19)
  call void @llvm.lifetime.end.p0(i64 128, ptr %7) #20
  br label %20

20:                                               ; preds = %15, %12
  ret void
}